target datalayout = "e-m:e-p270:32:32-p271:32:32-p272:64:64-i64:64-i128:128-f80:128-n8:16:32:64-S128"
target triple = "x86_64-pc-linux-gnu"

%struct.PyCompilerFlags = type { i32, i32 }
%struct._object = type { %union.anon.41, ptr }
%union.anon.41 = type { i64 }
%struct.PyBytesObject = type { %struct.PyVarObject, i64, [1 x i8] }
%struct.PyVarObject = type { %struct._object, i64 }
%struct._typeobject = type { %struct.PyVarObject, ptr, i64, i64, ptr, i64, ptr, ptr, ptr, ptr, ptr, ptr, ptr, ptr, ptr, ptr, ptr, ptr, ptr, i64, ptr, ptr, ptr, ptr, i64, ptr, ptr, ptr, ptr, ptr, ptr, ptr, ptr, ptr, i64, ptr, ptr, ptr, ptr, ptr, ptr, ptr, ptr, ptr, ptr, ptr, i32, ptr, ptr, i8, i16 }
%struct.anon.42 = type { i32, i32 }
%struct.Py_buffer = type { ptr, ptr, i64, i64, i32, i32, ptr, ptr, ptr, ptr, ptr }
%struct.PyByteArrayObject = type { %struct.PyVarObject, i64, ptr, ptr, i64 }

@PyByteArray_Type = external global %struct._typeobject, align 8
@PyExc_TypeError = external global ptr, align 8
@.str.16 = private unnamed_addr constant [31 x i8] c"%s() arg 1 must be a %s object\00", align 1
@PyExc_SyntaxError = external global ptr, align 8
@.str.17 = private unnamed_addr constant [45 x i8] c"source code string cannot contain null bytes\00", align 1
@_PyByteArray_empty_string = external global [0 x i8], align 1

; Function Attrs: alwaysinline nounwind uwtable
define internal i32 @_Py_IsImmortal(ptr noundef %0) #3 {
  %2 = alloca ptr, align 8
  store ptr %0, ptr %2, align 8, !tbaa !9
  %3 = load ptr, ptr %2, align 8, !tbaa !9
  %4 = getelementptr inbounds nuw %struct._object, ptr %3, i32 0, i32 0
  %5 = getelementptr inbounds nuw %struct.anon.42, ptr %4, i32 0, i32 0
  %6 = load i32, ptr %5, align 8, !tbaa !20
  %7 = icmp slt i32 %6, 0
  %8 = zext i1 %7 to i32
  ret i32 %8
}

; Function Attrs: inlinehint nounwind uwtable
define internal i32 @Py_IS_TYPE(ptr noundef %0, ptr noundef %1) #4 {
  %3 = alloca ptr, align 8
  %4 = alloca ptr, align 8
  store ptr %0, ptr %3, align 8, !tbaa !9
  store ptr %1, ptr %4, align 8, !tbaa !42
  %5 = load ptr, ptr %3, align 8, !tbaa !9
  %6 = call ptr @_Py_TYPE(ptr noundef %5)
  %7 = load ptr, ptr %4, align 8, !tbaa !42
  %8 = icmp eq ptr %6, %7
  %9 = zext i1 %8 to i32
  ret i32 %9
}

; Function Attrs: inlinehint nounwind uwtable
define internal i64 @Py_SIZE(ptr noundef %0) #4 {
  %2 = alloca ptr, align 8
  store ptr %0, ptr %2, align 8, !tbaa !9
  %3 = load ptr, ptr %2, align 8, !tbaa !9
  %4 = getelementptr inbounds nuw %struct.PyVarObject, ptr %3, i32 0, i32 1
  %5 = load i64, ptr %4, align 8, !tbaa !224
  ret i64 %5
}

; Function Attrs: alwaysinline nounwind uwtable
define internal void @Py_DECREF(ptr noundef %0) #3 {
  %2 = alloca ptr, align 8
  store ptr %0, ptr %2, align 8, !tbaa !9
  %3 = load ptr, ptr %2, align 8, !tbaa !9
  %4 = call i32 @_Py_IsImmortal(ptr noundef %3)
  %5 = icmp ne i32 %4, 0
  br i1 %5, label %6, label %7

6:                                                ; preds = %1
  br label %16

7:                                                ; preds = %1
  %8 = load ptr, ptr %2, align 8, !tbaa !9
  %9 = getelementptr inbounds nuw %struct._object, ptr %8, i32 0, i32 0
  %10 = getelementptr inbounds nuw %struct.anon.42, ptr %9, i32 0, i32 0
  %11 = load i32, ptr %10, align 8, !tbaa !20
  %12 = add i32 %11, -1
  store i32 %12, ptr %10, align 8, !tbaa !20
  %13 = icmp eq i32 %12, 0
  br i1 %13, label %14, label %16

14:                                               ; preds = %7
  %15 = load ptr, ptr %2, align 8, !tbaa !9
  call void @_Py_Dealloc(ptr noundef %15)
  br label %16

16:                                               ; preds = %6, %14, %7
  ret void
}

; Function Attrs: inlinehint nounwind uwtable
define internal i64 @PyByteArray_GET_SIZE(ptr noundef %0) #4 {
  %2 = alloca ptr, align 8
  %3 = alloca ptr, align 8
  store ptr %0, ptr %2, align 8, !tbaa !9
  call void @llvm.lifetime.start.p0(i64 8, ptr %3) #10
  %4 = load ptr, ptr %2, align 8, !tbaa !9
  store ptr %4, ptr %3, align 8, !tbaa !13
  %5 = load ptr, ptr %3, align 8, !tbaa !13
  %6 = call i64 @Py_SIZE(ptr noundef %5)
  call void @llvm.lifetime.end.p0(i64 8, ptr %3) #10
  ret i64 %6
}

; Function Attrs: inlinehint nounwind uwtable
define internal ptr @PyByteArray_AS_STRING(ptr noundef %0) #4 {
  %2 = alloca ptr, align 8
  %3 = alloca ptr, align 8
  %4 = alloca ptr, align 8
  %5 = alloca i32, align 4
  store ptr %0, ptr %3, align 8, !tbaa !9
  call void @llvm.lifetime.start.p0(i64 8, ptr %4) #10
  %6 = load ptr, ptr %3, align 8, !tbaa !9
  store ptr %6, ptr %4, align 8, !tbaa !13
  %7 = load ptr, ptr %4, align 8, !tbaa !13
  %8 = call i64 @Py_SIZE(ptr noundef %7)
  %9 = icmp ne i64 %8, 0
  br i1 %9, label %10, label %14

10:                                               ; preds = %1
  %11 = load ptr, ptr %4, align 8, !tbaa !13
  %12 = getelementptr inbounds nuw %struct.PyByteArrayObject, ptr %11, i32 0, i32 3
  %13 = load ptr, ptr %12, align 8, !tbaa !216
  store ptr %13, ptr %2, align 8
  store i32 1, ptr %5, align 4
  br label %15

14:                                               ; preds = %1
  store ptr @_PyByteArray_empty_string, ptr %2, align 8
  store i32 1, ptr %5, align 4
  br label %15

15:                                               ; preds = %14, %10
  call void @llvm.lifetime.end.p0(i64 8, ptr %4) #10
  %16 = load ptr, ptr %2, align 8
  ret ptr %16
}

; Function Attrs: inlinehint nounwind uwtable
define internal i32 @PyObject_TypeCheck(ptr noundef %0, ptr noundef %1) #4 {
  %3 = alloca ptr, align 8
  %4 = alloca ptr, align 8
  store ptr %0, ptr %3, align 8, !tbaa !9
  store ptr %1, ptr %4, align 8, !tbaa !42
  %5 = load ptr, ptr %3, align 8, !tbaa !9
  %6 = load ptr, ptr %4, align 8, !tbaa !42
  %7 = call i32 @Py_IS_TYPE(ptr noundef %5, ptr noundef %6)
  %8 = icmp ne i32 %7, 0
  br i1 %8, label %15, label %9

9:                                                ; preds = %2
  %10 = load ptr, ptr %3, align 8, !tbaa !9
  %11 = call ptr @_Py_TYPE(ptr noundef %10)
  %12 = load ptr, ptr %4, align 8, !tbaa !42
  %13 = call i32 @PyType_IsSubtype(ptr noundef %11, ptr noundef %12)
  %14 = icmp ne i32 %13, 0
  br label %15

15:                                               ; preds = %9, %2
  %16 = phi i1 [ true, %2 ], [ %14, %9 ]
  %17 = zext i1 %16 to i32
  ret i32 %17
}

; Function Attrs: inlinehint nounwind uwtable
define internal i64 @PyBytes_GET_SIZE(ptr noundef %0) #4 {
  %2 = alloca ptr, align 8
  %3 = alloca ptr, align 8
  store ptr %0, ptr %2, align 8, !tbaa !9
  call void @llvm.lifetime.start.p0(i64 8, ptr %3) #10
  %4 = load ptr, ptr %2, align 8, !tbaa !9
  store ptr %4, ptr %3, align 8, !tbaa !13
  %5 = load ptr, ptr %3, align 8, !tbaa !13
  %6 = call i64 @Py_SIZE(ptr noundef %5)
  call void @llvm.lifetime.end.p0(i64 8, ptr %3) #10
  ret i64 %6
}

; Function Attrs: inlinehint nounwind uwtable
define internal ptr @PyBytes_AS_STRING(ptr noundef %0) #4 {
  %2 = alloca ptr, align 8
  store ptr %0, ptr %2, align 8, !tbaa !9
  %3 = load ptr, ptr %2, align 8, !tbaa !9
  %4 = getelementptr inbounds nuw %struct.PyBytesObject, ptr %3, i32 0, i32 2
  %5 = getelementptr inbounds [1 x i8], ptr %4, i64 0, i64 0
  ret ptr %5
}

; Function Attrs: inlinehint nounwind uwtable
define internal i32 @PyType_HasFeature(ptr noundef %0, i64 noundef %1) #4 {
  %3 = alloca ptr, align 8
  %4 = alloca i64, align 8
  %5 = alloca i64, align 8
  store ptr %0, ptr %3, align 8, !tbaa !42
  store i64 %1, ptr %4, align 8, !tbaa !33
  call void @llvm.lifetime.start.p0(i64 8, ptr %5) #10
  %6 = load ptr, ptr %3, align 8, !tbaa !42
  %7 = getelementptr inbounds nuw %struct._typeobject, ptr %6, i32 0, i32 19
  %8 = load i64, ptr %7, align 8, !tbaa !43
  store i64 %8, ptr %5, align 8, !tbaa !33
  %9 = load i64, ptr %5, align 8, !tbaa !33
  %10 = load i64, ptr %4, align 8, !tbaa !33
  %11 = and i64 %9, %10
  %12 = icmp ne i64 %11, 0
  %13 = zext i1 %12 to i32
  call void @llvm.lifetime.end.p0(i64 8, ptr %5) #10
  ret i32 %13
}

; Function Attrs: inlinehint nounwind uwtable
define internal ptr @_Py_TYPE(ptr noundef %0) #4 {
  %2 = alloca ptr, align 8
  store ptr %0, ptr %2, align 8, !tbaa !9
  %3 = load ptr, ptr %2, align 8, !tbaa !9
  %4 = getelementptr inbounds nuw %struct._object, ptr %3, i32 0, i32 1
  %5 = load ptr, ptr %4, align 8, !tbaa !49
  ret ptr %5
}

; Function Attrs: nounwind uwtable
define hidden ptr @_Py_SourceAsString(ptr noundef %0, ptr noundef %1, ptr noundef %2, ptr noundef %3, ptr noundef %4) #0 {
  %6 = alloca ptr, align 8
  %7 = alloca ptr, align 8
  %8 = alloca ptr, align 8
  %9 = alloca ptr, align 8
  %10 = alloca ptr, align 8
  %11 = alloca ptr, align 8
  %12 = alloca ptr, align 8
  %13 = alloca i64, align 8
  %14 = alloca %struct.Py_buffer, align 8
  %15 = alloca i32, align 4
  %16 = alloca ptr, align 8
  %17 = alloca ptr, align 8
  store ptr %0, ptr %7, align 8, !tbaa !9
  store ptr %1, ptr %8, align 8, !tbaa !21
  store ptr %2, ptr %9, align 8, !tbaa !21
  store ptr %3, ptr %10, align 8, !tbaa !13
  store ptr %4, ptr %11, align 8, !tbaa !18
  call void @llvm.lifetime.start.p0(i64 8, ptr %12) #10
  call void @llvm.lifetime.start.p0(i64 8, ptr %13) #10
  call void @llvm.lifetime.start.p0(i64 80, ptr %14) #10
  %18 = load ptr, ptr %11, align 8, !tbaa !18
  store ptr null, ptr %18, align 8, !tbaa !9
  %19 = load ptr, ptr %7, align 8, !tbaa !9
  %20 = call ptr @_Py_TYPE(ptr noundef %19)
  %21 = call i32 @PyType_HasFeature(ptr noundef %20, i64 noundef 268435456)
  %22 = icmp ne i32 %21, 0
  br i1 %22, label %23, label %34

23:                                               ; preds = %5
  %24 = load ptr, ptr %10, align 8, !tbaa !13
  %25 = getelementptr inbounds nuw %struct.PyCompilerFlags, ptr %24, i32 0, i32 0
  %26 = load i32, ptr %25, align 4, !tbaa !40
  %27 = or i32 %26, 2048
  store i32 %27, ptr %25, align 4, !tbaa !40
  %28 = load ptr, ptr %7, align 8, !tbaa !9
  %29 = call ptr @PyUnicode_AsUTF8AndSize(ptr noundef %28, ptr noundef %13)
  store ptr %29, ptr %12, align 8, !tbaa !21
  %30 = load ptr, ptr %12, align 8, !tbaa !21
  %31 = icmp eq ptr %30, null
  br i1 %31, label %32, label %33

32:                                               ; preds = %23
  store ptr null, ptr %6, align 8
  store i32 1, ptr %15, align 4
  br label %104

33:                                               ; preds = %23
  br label %83

34:                                               ; preds = %5
  %35 = load ptr, ptr %7, align 8, !tbaa !9
  %36 = call ptr @_Py_TYPE(ptr noundef %35)
  %37 = call i32 @PyType_HasFeature(ptr noundef %36, i64 noundef 134217728)
  %38 = icmp ne i32 %37, 0
  br i1 %38, label %39, label %44

39:                                               ; preds = %34
  %40 = load ptr, ptr %7, align 8, !tbaa !9
  %41 = call ptr @PyBytes_AS_STRING(ptr noundef %40)
  store ptr %41, ptr %12, align 8, !tbaa !21
  %42 = load ptr, ptr %7, align 8, !tbaa !9
  %43 = call i64 @PyBytes_GET_SIZE(ptr noundef %42)
  store i64 %43, ptr %13, align 8, !tbaa !33
  br label %82

44:                                               ; preds = %34
  %45 = load ptr, ptr %7, align 8, !tbaa !9
  %46 = call i32 @PyObject_TypeCheck(ptr noundef %45, ptr noundef @PyByteArray_Type)
  %47 = icmp ne i32 %46, 0
  br i1 %47, label %48, label %53

48:                                               ; preds = %44
  %49 = load ptr, ptr %7, align 8, !tbaa !9
  %50 = call ptr @PyByteArray_AS_STRING(ptr noundef %49)
  store ptr %50, ptr %12, align 8, !tbaa !21
  %51 = load ptr, ptr %7, align 8, !tbaa !9
  %52 = call i64 @PyByteArray_GET_SIZE(ptr noundef %51)
  store i64 %52, ptr %13, align 8, !tbaa !33
  br label %81

53:                                               ; preds = %44
  %54 = load ptr, ptr %7, align 8, !tbaa !9
  %55 = call i32 @PyObject_GetBuffer(ptr noundef %54, ptr noundef %14, i32 noundef 0)
  %56 = icmp eq i32 %55, 0
  br i1 %56, label %57, label %75

57:                                               ; preds = %53
  %58 = getelementptr inbounds nuw %struct.Py_buffer, ptr %14, i32 0, i32 0
  %59 = load ptr, ptr %58, align 8, !tbaa !212
  %60 = getelementptr inbounds nuw %struct.Py_buffer, ptr %14, i32 0, i32 2
  %61 = load i64, ptr %60, align 8, !tbaa !215
  %62 = call ptr @PyBytes_FromStringAndSize(ptr noundef %59, i64 noundef %61)
  %63 = load ptr, ptr %11, align 8, !tbaa !18
  store ptr %62, ptr %63, align 8, !tbaa !9
  call void @PyBuffer_Release(ptr noundef %14)
  %64 = load ptr, ptr %11, align 8, !tbaa !18
  %65 = load ptr, ptr %64, align 8, !tbaa !9
  %66 = icmp eq ptr %65, null
  br i1 %66, label %67, label %68

67:                                               ; preds = %57
  store ptr null, ptr %6, align 8
  store i32 1, ptr %15, align 4
  br label %104

68:                                               ; preds = %57
  %69 = load ptr, ptr %11, align 8, !tbaa !18
  %70 = load ptr, ptr %69, align 8, !tbaa !9
  %71 = call ptr @PyBytes_AS_STRING(ptr noundef %70)
  store ptr %71, ptr %12, align 8, !tbaa !21
  %72 = load ptr, ptr %11, align 8, !tbaa !18
  %73 = load ptr, ptr %72, align 8, !tbaa !9
  %74 = call i64 @PyBytes_GET_SIZE(ptr noundef %73)
  store i64 %74, ptr %13, align 8, !tbaa !33
  br label %80

75:                                               ; preds = %53
  %76 = load ptr, ptr @PyExc_TypeError, align 8, !tbaa !9
  %77 = load ptr, ptr %8, align 8, !tbaa !21
  %78 = load ptr, ptr %9, align 8, !tbaa !21
  %79 = call ptr (ptr, ptr, ...) @PyErr_Format(ptr noundef %76, ptr noundef @.str.16, ptr noundef %77, ptr noundef %78)
  store ptr null, ptr %6, align 8
  store i32 1, ptr %15, align 4
  br label %104

80:                                               ; preds = %68
  br label %81

81:                                               ; preds = %80, %48
  br label %82

82:                                               ; preds = %81, %39
  br label %83

83:                                               ; preds = %82, %33
  %84 = load ptr, ptr %12, align 8, !tbaa !21
  %85 = call i64 @strlen(ptr noundef %84) #11
  %86 = load i64, ptr %13, align 8, !tbaa !33
  %87 = icmp ne i64 %85, %86
  br i1 %87, label %88, label %102

88:                                               ; preds = %83
  %89 = load ptr, ptr @PyExc_SyntaxError, align 8, !tbaa !9
  call void @PyErr_SetString(ptr noundef %89, ptr noundef @.str.17)
  br label %90

90:                                               ; preds = %88
  call void @llvm.lifetime.start.p0(i64 8, ptr %16) #10
  %91 = load ptr, ptr %11, align 8, !tbaa !18
  store ptr %91, ptr %16, align 8, !tbaa !18
  call void @llvm.lifetime.start.p0(i64 8, ptr %17) #10
  %92 = load ptr, ptr %16, align 8, !tbaa !18
  %93 = load ptr, ptr %92, align 8, !tbaa !9
  store ptr %93, ptr %17, align 8, !tbaa !9
  %94 = load ptr, ptr %17, align 8, !tbaa !9
  %95 = icmp ne ptr %94, null
  br i1 %95, label %96, label %99

96:                                               ; preds = %90
  %97 = load ptr, ptr %16, align 8, !tbaa !18
  store ptr null, ptr %97, align 8, !tbaa !9
  %98 = load ptr, ptr %17, align 8, !tbaa !9
  call void @Py_DECREF(ptr noundef %98)
  br label %99

99:                                               ; preds = %96, %90
  call void @llvm.lifetime.end.p0(i64 8, ptr %17) #10
  call void @llvm.lifetime.end.p0(i64 8, ptr %16) #10
  br label %100

100:                                              ; preds = %99
  br label %101

101:                                              ; preds = %100
  store ptr null, ptr %6, align 8
  store i32 1, ptr %15, align 4
  br label %104

102:                                              ; preds = %83
  %103 = load ptr, ptr %12, align 8, !tbaa !21
  store ptr %103, ptr %6, align 8
  store i32 1, ptr %15, align 4
  br label %104

104:                                              ; preds = %102, %101, %75, %67, %32
  call void @llvm.lifetime.end.p0(i64 80, ptr %14) #10
  call void @llvm.lifetime.end.p0(i64 8, ptr %13) #10
  call void @llvm.lifetime.end.p0(i64 8, ptr %12) #10
  %105 = load ptr, ptr %6, align 8
  ret ptr %105
}