; Function Attrs: nounwind uwtable
define hidden noundef ptr @_Py_SourceAsString(ptr noundef %0, ptr noundef %1, ptr noundef %2, ptr noundef captures(none) %3, ptr noundef captures(none) initializes((0, 8)) %4) local_unnamed_addr #0 {
  %6 = alloca i64, align 8
  %7 = alloca %struct.Py_buffer, align 8
  call void @llvm.lifetime.start.p0(i64 8, ptr nonnull %6) #8
  call void @llvm.lifetime.start.p0(i64 80, ptr nonnull %7) #8
  store ptr null, ptr %4, align 8, !tbaa !10
  %8 = getelementptr i8, ptr %0, i64 8
  %.val34 = load ptr, ptr %8, align 8, !tbaa !16
  %9 = getelementptr i8, ptr %.val34, i64 168
  %.val36 = load i64, ptr %9, align 8, !tbaa !26
  %10 = and i64 %.val36, 268435456
  %.not = icmp eq i64 %10, 0
  br i1 %.not, label %16, label %11

11:                                               ; preds = %5
  %12 = load i32, ptr %3, align 4, !tbaa !24
  %13 = or i32 %12, 2048
  store i32 %13, ptr %3, align 4, !tbaa !24
  %14 = call ptr @PyUnicode_AsUTF8AndSize(ptr noundef nonnull %0, ptr noundef nonnull %6) #8
  %15 = icmp eq ptr %14, null
  br i1 %15, label %Py_DECREF.exit, label %._crit_edge

._crit_edge:                                      ; preds = %11
  %.pre = load i64, ptr %6, align 8, !tbaa !202
  br label %43

16:                                               ; preds = %5
  %17 = and i64 %.val36, 134217728
  %.not30 = icmp eq i64 %17, 0
  br i1 %.not30, label %21, label %18

18:                                               ; preds = %16
  %19 = getelementptr inbounds nuw i8, ptr %0, i64 32
  %20 = getelementptr i8, ptr %0, i64 16
  %.val37 = load i64, ptr %20, align 8, !tbaa !34
  store i64 %.val37, ptr %6, align 8, !tbaa !202
  br label %43

21:                                               ; preds = %16
  %.not.i41 = icmp eq ptr %.val34, @PyByteArray_Type
  br i1 %.not.i41, label %PyObject_TypeCheck.exit.thread, label %PyObject_TypeCheck.exit

PyObject_TypeCheck.exit:                          ; preds = %21
  %22 = tail call i32 @PyType_IsSubtype(ptr noundef %.val34, ptr noundef nonnull @PyByteArray_Type) #8
  %.not44 = icmp eq i32 %22, 0
  br i1 %.not44, label %27, label %PyObject_TypeCheck.exit.thread

PyObject_TypeCheck.exit.thread:                   ; preds = %21, %PyObject_TypeCheck.exit
  %23 = getelementptr i8, ptr %0, i64 16
  %.val.i = load i64, ptr %23, align 8, !tbaa !34
  %.not.i42 = icmp eq i64 %.val.i, 0
  br i1 %.not.i42, label %PyByteArray_AS_STRING.exit, label %24

24:                                               ; preds = %PyObject_TypeCheck.exit.thread
  %25 = getelementptr inbounds nuw i8, ptr %0, i64 40
  %26 = load ptr, ptr %25, align 8, !tbaa !203
  br label %PyByteArray_AS_STRING.exit

PyByteArray_AS_STRING.exit:                       ; preds = %PyObject_TypeCheck.exit.thread, %24
  %.0.i = phi ptr [ %26, %24 ], [ @_PyByteArray_empty_string, %PyObject_TypeCheck.exit.thread ]
  store i64 %.val.i, ptr %6, align 8, !tbaa !202
  br label %43

27:                                               ; preds = %PyObject_TypeCheck.exit
  %28 = call i32 @PyObject_GetBuffer(ptr noundef nonnull %0, ptr noundef nonnull %7, i32 noundef 0) #8
  %29 = icmp eq i32 %28, 0
  br i1 %29, label %30, label %40

30:                                               ; preds = %27
  %31 = load ptr, ptr %7, align 8, !tbaa !205
  %32 = getelementptr inbounds nuw i8, ptr %7, i64 16
  %33 = load i64, ptr %32, align 8, !tbaa !208
  %34 = call ptr @PyBytes_FromStringAndSize(ptr noundef %31, i64 noundef %33) #8
  store ptr %34, ptr %4, align 8, !tbaa !10
  call void @PyBuffer_Release(ptr noundef nonnull %7) #8
  %35 = load ptr, ptr %4, align 8, !tbaa !10
  %36 = icmp eq ptr %35, null
  br i1 %36, label %Py_DECREF.exit, label %37

37:                                               ; preds = %30
  %38 = getelementptr inbounds nuw i8, ptr %35, i64 32
  %39 = getelementptr i8, ptr %35, i64 16
  %.val38 = load i64, ptr %39, align 8, !tbaa !34
  store i64 %.val38, ptr %6, align 8, !tbaa !202
  br label %43

40:                                               ; preds = %27
  %41 = load ptr, ptr @PyExc_TypeError, align 8, !tbaa !10
  %42 = call ptr (ptr, ptr, ...) @PyErr_Format(ptr noundef %41, ptr noundef nonnull @.str.16, ptr noundef %1, ptr noundef %2) #8
  br label %Py_DECREF.exit

43:                                               ; preds = %._crit_edge, %18, %37, %PyByteArray_AS_STRING.exit
  %44 = phi i64 [ %.pre, %._crit_edge ], [ %.val37, %18 ], [ %.val.i, %PyByteArray_AS_STRING.exit ], [ %.val38, %37 ]
  %.026 = phi ptr [ %14, %._crit_edge ], [ %19, %18 ], [ %.0.i, %PyByteArray_AS_STRING.exit ], [ %38, %37 ]
  %45 = call i64 @strlen(ptr noundef nonnull dereferenceable(1) %.026) #11
  %.not32 = icmp eq i64 %45, %44
  br i1 %.not32, label %Py_DECREF.exit, label %46

46:                                               ; preds = %43
  %47 = load ptr, ptr @PyExc_SyntaxError, align 8, !tbaa !10
  call void @PyErr_SetString(ptr noundef %47, ptr noundef nonnull @.str.17) #8
  %48 = load ptr, ptr %4, align 8, !tbaa !10
  %.not33 = icmp eq ptr %48, null
  br i1 %.not33, label %Py_DECREF.exit, label %49

49:                                               ; preds = %46
  store ptr null, ptr %4, align 8, !tbaa !10
  %50 = load i32, ptr %48, align 8, !tbaa !9
  %.not.i = icmp sgt i32 %50, -1
  br i1 %.not.i, label %51, label %Py_DECREF.exit

51:                                               ; preds = %49
  %52 = add nsw i32 %50, -1
  store i32 %52, ptr %48, align 8, !tbaa !9
  %53 = icmp eq i32 %52, 0
  br i1 %53, label %54, label %Py_DECREF.exit

54:                                               ; preds = %51
  call void @_Py_Dealloc(ptr noundef nonnull %48) #8
  br label %Py_DECREF.exit

Py_DECREF.exit:                                   ; preds = %54, %51, %49, %43, %46, %30, %11, %40
  %.0 = phi ptr [ null, %40 ], [ null, %11 ], [ null, %30 ], [ null, %46 ], [ %.026, %43 ], [ null, %49 ], [ null, %51 ], [ null, %54 ]
  call void @llvm.lifetime.end.p0(i64 80, ptr nonnull %7) #8
  call void @llvm.lifetime.end.p0(i64 8, ptr nonnull %6) #8
  ret ptr %.0
}